target datalayout = "e-m:e-p270:32:32-p271:32:32-p272:64:64-i64:64-i128:128-f80:128-n8:16:32:64-S128"
target triple = "x86_64-pc-linux-gnu"

%struct.AVSHA512 = type { i8, i64, [128 x i8], [8 x i64] }

; Function Attrs: nounwind uwtable
define void @av_sha512_update(ptr noundef %0, ptr noundef %1, i64 noundef %2) #0 {
  %4 = alloca ptr, align 8
  %5 = alloca ptr, align 8
  %6 = alloca i64, align 8
  %7 = alloca i32, align 4
  %8 = alloca i64, align 8
  %9 = alloca ptr, align 8
  store ptr %0, ptr %4, align 8, !tbaa !4
  store ptr %1, ptr %5, align 8, !tbaa !16
  store i64 %2, ptr %6, align 8, !tbaa !14
  call void @llvm.lifetime.start.p0(i64 4, ptr %7) #7
  call void @llvm.lifetime.start.p0(i64 8, ptr %8) #7
  %10 = load ptr, ptr %4, align 8, !tbaa !4
  %11 = getelementptr inbounds nuw %struct.AVSHA512, ptr %10, i32 0, i32 1
  %12 = load i64, ptr %11, align 8, !tbaa !15
  %13 = and i64 %12, 127
  %14 = trunc i64 %13 to i32
  store i32 %14, ptr %7, align 4, !tbaa !9
  %15 = load i64, ptr %6, align 8, !tbaa !14
  %16 = load ptr, ptr %4, align 8, !tbaa !4
  %17 = getelementptr inbounds nuw %struct.AVSHA512, ptr %16, i32 0, i32 1
  %18 = load i64, ptr %17, align 8, !tbaa !15
  %19 = add i64 %18, %15
  store i64 %19, ptr %17, align 8, !tbaa !15
  %20 = load i64, ptr %6, align 8, !tbaa !14
  %21 = load i32, ptr %7, align 4, !tbaa !9
  %22 = sub i32 128, %21
  %23 = zext i32 %22 to i64
  %24 = icmp uge i64 %20, %23
  br i1 %24, label %25, label %66

25:                                               ; preds = %3
  call void @llvm.lifetime.start.p0(i64 8, ptr %9) #7
  %26 = load ptr, ptr %4, align 8, !tbaa !4
  %27 = getelementptr inbounds nuw %struct.AVSHA512, ptr %26, i32 0, i32 2
  %28 = load i32, ptr %7, align 4, !tbaa !9
  %29 = zext i32 %28 to i64
  %30 = getelementptr inbounds nuw [128 x i8], ptr %27, i64 0, i64 %29
  %31 = load ptr, ptr %5, align 8, !tbaa !16
  %32 = load i32, ptr %7, align 4, !tbaa !9
  %33 = sub i32 128, %32
  %34 = zext i32 %33 to i64
  store i64 %34, ptr %8, align 8, !tbaa !14
  call void @llvm.memcpy.p0.p0.i64(ptr align 1 %30, ptr align 1 %31, i64 %34, i1 false)
  %35 = load ptr, ptr %4, align 8, !tbaa !4
  %36 = getelementptr inbounds nuw %struct.AVSHA512, ptr %35, i32 0, i32 3
  %37 = getelementptr inbounds [8 x i64], ptr %36, i64 0, i64 0
  %38 = load ptr, ptr %4, align 8, !tbaa !4
  %39 = getelementptr inbounds nuw %struct.AVSHA512, ptr %38, i32 0, i32 2
  %40 = getelementptr inbounds [128 x i8], ptr %39, i64 0, i64 0
  call void @sha512_transform(ptr noundef %37, ptr noundef %40)
  %41 = load i64, ptr %8, align 8, !tbaa !14
  %42 = load ptr, ptr %5, align 8, !tbaa !16
  %43 = getelementptr inbounds nuw i8, ptr %42, i64 %41
  store ptr %43, ptr %5, align 8, !tbaa !16
  %44 = load i64, ptr %8, align 8, !tbaa !14
  %45 = load i64, ptr %6, align 8, !tbaa !14
  %46 = sub i64 %45, %44
  store i64 %46, ptr %6, align 8, !tbaa !14
  %47 = load ptr, ptr %5, align 8, !tbaa !16
  %48 = load i64, ptr %6, align 8, !tbaa !14
  %49 = and i64 %48, -128
  %50 = getelementptr inbounds nuw i8, ptr %47, i64 %49
  store ptr %50, ptr %9, align 8, !tbaa !16
  %51 = load i64, ptr %6, align 8, !tbaa !14
  %52 = urem i64 %51, 128
  store i64 %52, ptr %6, align 8, !tbaa !14
  br label %53

53:                                               ; preds = %62, %25
  %54 = load ptr, ptr %5, align 8, !tbaa !16
  %55 = load ptr, ptr %9, align 8, !tbaa !16
  %56 = icmp ult ptr %54, %55
  br i1 %56, label %57, label %65

57:                                               ; preds = %53
  %58 = load ptr, ptr %4, align 8, !tbaa !4
  %59 = getelementptr inbounds nuw %struct.AVSHA512, ptr %58, i32 0, i32 3
  %60 = getelementptr inbounds [8 x i64], ptr %59, i64 0, i64 0
  %61 = load ptr, ptr %5, align 8, !tbaa !16
  call void @sha512_transform(ptr noundef %60, ptr noundef %61)
  br label %62

62:                                               ; preds = %57
  %63 = load ptr, ptr %5, align 8, !tbaa !16
  %64 = getelementptr inbounds i8, ptr %63, i64 128
  store ptr %64, ptr %5, align 8, !tbaa !16
  br label %53, !llvm.loop !18

65:                                               ; preds = %53
  store i32 0, ptr %7, align 4, !tbaa !9
  call void @llvm.lifetime.end.p0(i64 8, ptr %9) #7
  br label %66

66:                                               ; preds = %65, %3
  %67 = load ptr, ptr %4, align 8, !tbaa !4
  %68 = getelementptr inbounds nuw %struct.AVSHA512, ptr %67, i32 0, i32 2
  %69 = load i32, ptr %7, align 4, !tbaa !9
  %70 = zext i32 %69 to i64
  %71 = getelementptr inbounds nuw [128 x i8], ptr %68, i64 0, i64 %70
  %72 = load ptr, ptr %5, align 8, !tbaa !16
  %73 = load i64, ptr %6, align 8, !tbaa !14
  call void @llvm.memcpy.p0.p0.i64(ptr align 1 %71, ptr align 1 %72, i64 %73, i1 false)
  call void @llvm.lifetime.end.p0(i64 8, ptr %8) #7
  call void @llvm.lifetime.end.p0(i64 4, ptr %7) #7
  ret void
}