; Function Attrs: nofree norecurse nosync nounwind memory(argmem: readwrite) uwtable
define void @av_sha512_update(ptr noundef captures(none) %0, ptr noundef readonly captures(address) %1, i64 noundef %2) local_unnamed_addr #3 {
  %4 = getelementptr inbounds nuw i8, ptr %0, i64 8
  %5 = load i64, ptr %4, align 8, !tbaa !10
  %6 = trunc i64 %5 to i32
  %7 = and i32 %6, 127
  %8 = add i64 %5, %2
  store i64 %8, ptr %4, align 8, !tbaa !10
  %9 = sub nuw nsw i32 128, %7
  %10 = zext nneg i32 %9 to i64
  %.not = icmp ult i64 %2, %10
  br i1 %.not, label %.loopexit, label %11

11:                                               ; preds = %3
  %12 = getelementptr inbounds nuw i8, ptr %0, i64 16
  %13 = and i64 %5, 127
  %14 = getelementptr inbounds nuw [128 x i8], ptr %12, i64 0, i64 %13
  tail call void @llvm.memcpy.p0.p0.i64(ptr noundef nonnull align 1 dereferenceable(1) %14, ptr noundef nonnull align 1 dereferenceable(1) %1, i64 %10, i1 false)
  %15 = getelementptr inbounds nuw i8, ptr %0, i64 144
  tail call fastcc void @sha512_transform(ptr noundef nonnull %15, ptr noundef nonnull %12)
  %16 = getelementptr inbounds nuw i8, ptr %1, i64 %10
  %17 = sub nuw i64 %2, %10
  %18 = and i64 %17, -128
  %19 = getelementptr inbounds nuw i8, ptr %16, i64 %18
  %20 = and i64 %17, 127
  %.not32 = icmp eq i64 %18, 0
  br i1 %.not32, label %.loopexit, label %.lr.ph

.lr.ph:                                           ; preds = %11, %.lr.ph
  %.131 = phi ptr [ %21, %.lr.ph ], [ %16, %11 ]
  tail call fastcc void @sha512_transform(ptr noundef nonnull %15, ptr noundef nonnull %.131)
  %21 = getelementptr inbounds nuw i8, ptr %.131, i64 128
  %22 = icmp ult ptr %21, %19
  br i1 %22, label %.lr.ph, label %.loopexit, !llvm.loop !11

.loopexit:                                        ; preds = %.lr.ph, %11, %3
  %.027 = phi i32 [ %7, %3 ], [ 0, %11 ], [ 0, %.lr.ph ]
  %.026 = phi i64 [ %2, %3 ], [ %20, %11 ], [ %20, %.lr.ph ]
  %.0 = phi ptr [ %1, %3 ], [ %16, %11 ], [ %21, %.lr.ph ]
  %23 = getelementptr inbounds nuw i8, ptr %0, i64 16
  %24 = zext nneg i32 %.027 to i64
  %25 = getelementptr inbounds nuw [128 x i8], ptr %23, i64 0, i64 %24
  tail call void @llvm.memcpy.p0.p0.i64(ptr nonnull align 1 %25, ptr align 1 %.0, i64 %.026, i1 false)
  ret void
}